Certificate:
    Data:
        Version: 3 (0x2)
        Serial Number:
            26:8d:8d:09:7b:de:19:bf:5d:0a:be:b0:d2:6e:83:59
        Signature Algorithm: ecdsa-with-SHA512
        Issuer: CN=Nsd-proj
        Validity
            Not Before: Aug  9 17:09:54 2022 GMT
            Not After : Nov 11 17:09:54 2024 GMT
        Subject: CN=client1
        Subject Public Key Info:
            Public Key Algorithm: id-ecPublicKey
                Public-Key: (384 bit)
                pub:
                    04:c7:4b:53:67:38:8c:8e:82:cd:cb:82:53:34:1f:
                    f5:81:d2:33:5a:2f:49:0f:40:e4:4e:00:d5:48:5a:
                    e0:27:52:3a:c9:13:d5:f7:d7:d3:3a:4e:dc:a9:5d:
                    74:f1:72:0d:a6:6e:1a:f0:5f:4f:06:e6:37:29:a4:
                    2b:1b:9d:1e:df:ea:62:67:fb:d2:d1:6f:15:18:64:
                    2a:de:cc:bc:15:b3:c7:45:75:17:8d:cb:2f:0e:e2:
                    f7:d2:74:0f:2d:57:49
                ASN1 OID: secp384r1
                NIST CURVE: P-384
        X509v3 extensions:
            X509v3 Basic Constraints: 
                CA:FALSE
            X509v3 Subject Key Identifier: 
                F5:F3:F2:1F:74:3C:30:C7:BE:B0:8A:8E:DD:10:60:8F:47:D1:0A:E3
            X509v3 Authority Key Identifier: 
                keyid:38:0B:B6:FE:7E:5F:7D:EB:8A:7F:EA:69:26:92:E5:0C:35:B3:E8:F2
                DirName:/CN=Nsd-proj
                serial:50:38:8D:DB:8C:10:CE:93:E3:F8:79:91:05:4E:FF:FA:0C:3E:95:04

            X509v3 Extended Key Usage: 
                TLS Web Client Authentication
            X509v3 Key Usage: 
                Digital Signature
    Signature Algorithm: ecdsa-with-SHA512
         30:66:02:31:00:9a:cf:f9:ab:cc:ab:f3:33:d5:cd:4d:2c:98:
         70:c7:dc:70:d2:61:c3:63:53:f6:92:7e:14:bb:07:ca:f1:d5:
         1a:79:b2:db:fc:84:a9:85:09:c9:ea:50:58:50:12:3e:07:02:
         31:00:8d:bd:d4:07:cb:2a:09:db:81:fe:09:bb:fc:7e:fa:43:
         bf:46:e1:ac:8b:bf:d7:46:c7:2f:cb:ce:a3:e6:f7:94:7f:11:
         1b:65:fe:c5:8d:62:d1:5b:27:ba:a7:55:9e:01
-----BEGIN CERTIFICATE-----
MIICATCCAYagAwIBAgIQJo2NCXveGb9dCr6w0m6DWTAKBggqhkjOPQQDBDATMREw
DwYDVQQDDAhOc2QtcHJvajAeFw0yMjA4MDkxNzA5NTRaFw0yNDExMTExNzA5NTRa
MBIxEDAOBgNVBAMMB2NsaWVudDEwdjAQBgcqhkjOPQIBBgUrgQQAIgNiAATHS1Nn
OIyOgs3LglM0H/WB0jNaL0kPQOROANVIWuAnUjrJE9X319M6TtypXXTxcg2mbhrw
X08G5jcppCsbnR7f6mJn+9LRbxUYZCrezLwVs8dFdReNyy8O4vfSdA8tV0mjgZ8w
gZwwCQYDVR0TBAIwADAdBgNVHQ4EFgQU9fPyH3Q8MMe+sIqO3RBgj0fRCuMwTgYD
VR0jBEcwRYAUOAu2/n5ffeuKf+ppJpLlDDWz6PKhF6QVMBMxETAPBgNVBAMMCE5z
ZC1wcm9qghRQOI3bjBDOk+P4eZEFTv/6DD6VBDATBgNVHSUEDDAKBggrBgEFBQcD
AjALBgNVHQ8EBAMCB4AwCgYIKoZIzj0EAwQDaQAwZgIxAJrP+avMq/Mz1c1NLJhw
x9xw0mHDY1P2kn4UuwfK8dUaebLb/ISphQnJ6lBYUBI+BwIxAI291AfLKgnbgf4J
u/x++kO/RuGsi7/XRscvy86j5veUfxEbZf7FjWLRWye6p1WeAQ==
-----END CERTIFICATE-----
