Certificate:
    Data:
        Version: 3 (0x2)
        Serial Number:
            3b:57:1a:38:3f:df:91:27:54:7d:67:52:7b:f8:8d:f8
        Signature Algorithm: ecdsa-with-SHA512
        Issuer: CN=Nsd-proj
        Validity
            Not Before: Aug  9 17:10:33 2022 GMT
            Not After : Nov 11 17:10:33 2024 GMT
        Subject: CN=server
        Subject Public Key Info:
            Public Key Algorithm: id-ecPublicKey
                Public-Key: (384 bit)
                pub:
                    04:47:a9:e1:04:8c:75:2d:e8:3c:31:6b:56:86:69:
                    e1:ce:a6:06:6b:62:97:e4:47:f6:7c:7a:f3:ee:12:
                    24:6a:6e:6d:95:7b:a8:24:d9:5b:6d:3e:f9:5a:ee:
                    41:8b:08:5d:86:b6:fe:02:52:59:b4:aa:6c:be:71:
                    92:19:e1:ca:4b:2d:23:91:05:47:1f:8b:ab:a7:85:
                    1d:a7:94:31:03:d4:1d:8e:5f:aa:ee:70:d6:cd:bb:
                    e3:a7:43:7b:ff:e8:9b
                ASN1 OID: secp384r1
                NIST CURVE: P-384
        X509v3 extensions:
            X509v3 Basic Constraints: 
                CA:FALSE
            X509v3 Subject Key Identifier: 
                A3:61:73:88:BD:3A:11:9F:E3:32:E6:89:4D:32:37:51:90:03:B3:24
            X509v3 Authority Key Identifier: 
                keyid:38:0B:B6:FE:7E:5F:7D:EB:8A:7F:EA:69:26:92:E5:0C:35:B3:E8:F2
                DirName:/CN=Nsd-proj
                serial:50:38:8D:DB:8C:10:CE:93:E3:F8:79:91:05:4E:FF:FA:0C:3E:95:04

            X509v3 Extended Key Usage: 
                TLS Web Server Authentication
            X509v3 Key Usage: 
                Digital Signature, Key Encipherment
            X509v3 Subject Alternative Name: 
                DNS:server
    Signature Algorithm: ecdsa-with-SHA512
         30:65:02:30:20:2d:f5:4c:11:5b:87:63:15:4f:d9:6a:c9:a2:
         28:79:86:8c:09:d1:fa:c9:29:ad:50:ed:fb:99:0b:5d:19:14:
         b8:56:d2:39:9f:11:fb:8f:e9:1f:11:51:15:65:62:8d:02:31:
         00:e6:2d:ab:ed:de:a3:08:d7:82:85:a9:00:20:08:49:8e:1e:
         ae:4e:17:ca:38:27:04:ba:05:34:5d:c5:b1:77:d0:58:5a:60:
         86:21:92:55:db:d7:d6:a6:f1:60:a4:3a:04
-----BEGIN CERTIFICATE-----
MIICEjCCAZigAwIBAgIQO1caOD/fkSdUfWdSe/iN+DAKBggqhkjOPQQDBDATMREw
DwYDVQQDDAhOc2QtcHJvajAeFw0yMjA4MDkxNzEwMzNaFw0yNDExMTExNzEwMzNa
MBExDzANBgNVBAMMBnNlcnZlcjB2MBAGByqGSM49AgEGBSuBBAAiA2IABEep4QSM
dS3oPDFrVoZp4c6mBmtil+RH9nx68+4SJGpubZV7qCTZW20++VruQYsIXYa2/gJS
WbSqbL5xkhnhykstI5EFRx+Lq6eFHaeUMQPUHY5fqu5w1s2746dDe//om6OBsjCB
rzAJBgNVHRMEAjAAMB0GA1UdDgQWBBSjYXOIvToRn+My5olNMjdRkAOzJDBOBgNV
HSMERzBFgBQ4C7b+fl9964p/6mkmkuUMNbPo8qEXpBUwEzERMA8GA1UEAwwITnNk
LXByb2qCFFA4jduMEM6T4/h5kQVO//oMPpUEMBMGA1UdJQQMMAoGCCsGAQUFBwMB
MAsGA1UdDwQEAwIFoDARBgNVHREECjAIggZzZXJ2ZXIwCgYIKoZIzj0EAwQDaAAw
ZQIwIC31TBFbh2MVT9lqyaIoeYaMCdH6ySmtUO37mQtdGRS4VtI5nxH7j+kfEVEV
ZWKNAjEA5i2r7d6jCNeChakAIAhJjh6uThfKOCcEugU0XcWxd9BYWmCGIZJV29fW
pvFgpDoE
-----END CERTIFICATE-----
